; Function Attrs: nounwind uwtable
define ptr @l_Lean_Server_FileWorker_findGoalsAt_x3f___lambda__7(ptr noundef %0, ptr noundef %1, ptr noundef %2) #0 {
  %4 = ptrtoint ptr %2 to i64
  %5 = and i64 %4, 1
  %.not.i26 = icmp eq i64 %5, 0
  br i1 %.not.i26, label %9, label %6

6:                                                ; preds = %3
  %7 = lshr i64 %4, 1
  %8 = trunc i64 %7 to i32
  br label %lean_obj_tag.exit

9:                                                ; preds = %3
  %10 = getelementptr i8, ptr %2, i64 4
  %.val.i = load i32, ptr %10, align 4
  %11 = lshr i32 %.val.i, 24
  br label %lean_obj_tag.exit

lean_obj_tag.exit:                                ; preds = %6, %9
  %.0.i = phi i32 [ %8, %6 ], [ %11, %9 ]
  %12 = icmp eq i32 %.0.i, 0
  br i1 %12, label %13, label %33

13:                                               ; preds = %lean_obj_tag.exit
  %14 = ptrtoint ptr %1 to i64
  %15 = and i64 %14, 1
  %.not30 = icmp eq i64 %15, 0
  br i1 %.not30, label %16, label %lean_dec.exit21

16:                                               ; preds = %13
  %17 = load i32, ptr %1, align 4, !tbaa !4
  %18 = icmp sgt i32 %17, 1
  br i1 %18, label %19, label %21, !prof !9

19:                                               ; preds = %16
  %20 = add nsw i32 %17, -1
  store i32 %20, ptr %1, align 4, !tbaa !4
  br label %lean_dec.exit21

21:                                               ; preds = %16
  %.not.i = icmp eq i32 %17, 0
  br i1 %.not.i, label %lean_dec.exit21, label %22

22:                                               ; preds = %21
  tail call void @lean_dec_ref_cold(ptr noundef nonnull %1) #8
  br label %lean_dec.exit21

lean_dec.exit21:                                  ; preds = %22, %21, %19, %13
  %23 = ptrtoint ptr %0 to i64
  %24 = and i64 %23, 1
  %.not31 = icmp eq i64 %24, 0
  br i1 %.not31, label %25, label %lean_dec.exit20

25:                                               ; preds = %lean_dec.exit21
  %26 = load i32, ptr %0, align 4, !tbaa !4
  %27 = icmp sgt i32 %26, 1
  br i1 %27, label %28, label %30, !prof !9

28:                                               ; preds = %25
  %29 = add nsw i32 %26, -1
  store i32 %29, ptr %0, align 4, !tbaa !4
  br label %lean_dec.exit20

30:                                               ; preds = %25
  %.not.i22 = icmp eq i32 %26, 0
  br i1 %.not.i22, label %lean_dec.exit20, label %31

31:                                               ; preds = %30
  tail call void @lean_dec_ref_cold(ptr noundef nonnull %0) #8
  br label %lean_dec.exit20

lean_dec.exit20:                                  ; preds = %31, %30, %28, %lean_dec.exit21
  %32 = load ptr, ptr @l_Lean_Server_FileWorker_findGoalsAt_x3f___lambda__7___closed__1, align 8, !tbaa !10
  br label %68

33:                                               ; preds = %lean_obj_tag.exit
  %34 = getelementptr inbounds nuw i8, ptr %2, i64 8
  %35 = load ptr, ptr %34, align 8, !tbaa !10
  %36 = ptrtoint ptr %35 to i64
  %37 = and i64 %36, 1
  %.not = icmp eq i64 %37, 0
  br i1 %.not, label %38, label %lean_inc.exit

38:                                               ; preds = %33
  %.val.i27 = load i32, ptr %35, align 4, !tbaa !4
  %39 = icmp sgt i32 %.val.i27, 0
  br i1 %39, label %40, label %42, !prof !9

40:                                               ; preds = %38
  %41 = add nuw i32 %.val.i27, 1
  store i32 %41, ptr %35, align 4, !tbaa !4
  br label %lean_inc.exit

42:                                               ; preds = %38
  %.not.i28 = icmp eq i32 %.val.i27, 0
  br i1 %.not.i28, label %lean_inc.exit, label %43

43:                                               ; preds = %42
  tail call void @lean_inc_ref_cold(ptr noundef nonnull %35) #8
  br label %lean_inc.exit

lean_inc.exit:                                    ; preds = %43, %42, %40, %33
  br i1 %.not.i26, label %44, label %lean_dec.exit

44:                                               ; preds = %lean_inc.exit
  %45 = load i32, ptr %2, align 4, !tbaa !4
  %46 = icmp sgt i32 %45, 1
  br i1 %46, label %47, label %49, !prof !9

47:                                               ; preds = %44
  %48 = add nsw i32 %45, -1
  store i32 %48, ptr %2, align 4, !tbaa !4
  br label %lean_dec.exit

49:                                               ; preds = %44
  %.not.i24 = icmp eq i32 %45, 0
  br i1 %.not.i24, label %lean_dec.exit, label %50

50:                                               ; preds = %49
  tail call void @lean_dec_ref_cold(ptr noundef nonnull %2) #8
  br label %lean_dec.exit

lean_dec.exit:                                    ; preds = %50, %49, %47, %lean_inc.exit
  %51 = tail call ptr @l_Lean_Language_Lean_instToSnapshotTreeCommandParsedSnapshot_go(ptr noundef %35) #8
  tail call void @lean_inc_heartbeat() #8
  %52 = tail call noalias ptr @mi_malloc_small(i64 noundef 40) #8
  %53 = icmp eq ptr %52, null
  br i1 %53, label %54, label %lean_alloc_closure.exit

54:                                               ; preds = %lean_dec.exit
  tail call void @lean_internal_panic_out_of_memory() #9
  unreachable

lean_alloc_closure.exit:                          ; preds = %lean_dec.exit
  %55 = getelementptr inbounds nuw i8, ptr %52, i64 4
  store i32 1, ptr %52, align 4, !tbaa !4
  store i32 -184549336, ptr %55, align 4
  %56 = getelementptr inbounds nuw i8, ptr %52, i64 8
  store ptr @l_Lean_Server_FileWorker_findGoalsAt_x3f___lambda__5, ptr %56, align 8, !tbaa !10
  %57 = getelementptr inbounds nuw i8, ptr %52, i64 16
  store i16 4, ptr %57, align 8, !tbaa !14
  %58 = getelementptr inbounds nuw i8, ptr %52, i64 18
  store i16 2, ptr %58, align 2, !tbaa !14
  %59 = getelementptr inbounds nuw i8, ptr %52, i64 24
  store ptr %0, ptr %59, align 8, !tbaa !10
  %60 = getelementptr inbounds nuw i8, ptr %52, i64 32
  store ptr %1, ptr %60, align 8, !tbaa !10
  %61 = tail call ptr @l_Lean_Language_SnapshotTree_foldSnaps___rarg(ptr noundef %51, ptr noundef nonnull inttoptr (i64 1 to ptr), ptr noundef nonnull %52) #8
  %62 = load ptr, ptr @l_Lean_Server_FileWorker_findGoalsAt_x3f___lambda__7___closed__2, align 8, !tbaa !10
  %63 = load ptr, ptr @l_Task_Priority_default, align 8, !tbaa !10
  %64 = ptrtoint ptr %63 to i64
  %65 = lshr i64 %64, 1
  %66 = trunc i64 %65 to i32
  %67 = tail call ptr @lean_task_map_core(ptr noundef %62, ptr noundef %61, i32 noundef %66, i1 noundef zeroext true, i1 noundef zeroext false) #8
  br label %68

68:                                               ; preds = %lean_alloc_closure.exit, %lean_dec.exit20
  %.0 = phi ptr [ %32, %lean_dec.exit20 ], [ %67, %lean_alloc_closure.exit ]
  ret ptr %.0
}